; Function Attrs: mustprogress nofree nounwind willreturn memory(read, inaccessiblemem: none) uwtable
define dso_local noundef i32 @_ZN3ozz9animation9FindJointERKNS0_8SkeletonEPKc(ptr nocapture noundef nonnull readonly align 8 dereferenceable(48) %0, ptr nocapture noundef readonly %1) local_unnamed_addr #0 {
  %3 = getelementptr inbounds i8, ptr %0, i64 32
  %4 = load ptr, ptr %3, align 8
  %5 = getelementptr inbounds i8, ptr %0, i64 40
  %6 = load i64, ptr %5, align 8
  %.not = icmp eq i64 %6, 0
  br i1 %.not, label %.loopexit, label %.lr.ph

.lr.ph:                                           ; preds = %2, %13
  %.010 = phi i64 [ %14, %13 ], [ 0, %2 ]
  %7 = getelementptr inbounds ptr, ptr %4, i64 %.010
  %8 = load ptr, ptr %7, align 8
  %9 = tail call i32 @strcmp(ptr noundef nonnull dereferenceable(1) %8, ptr noundef nonnull dereferenceable(1) %1) #3
  %10 = icmp eq i32 %9, 0
  br i1 %10, label %11, label %13

11:                                               ; preds = %.lr.ph
  %12 = trunc i64 %.010 to i32
  br label %.loopexit

13:                                               ; preds = %.lr.ph
  %14 = add nuw i64 %.010, 1
  %exitcond.not = icmp eq i64 %14, %6
  br i1 %exitcond.not, label %.loopexit, label %.lr.ph, !llvm.loop !5

.loopexit:                                        ; preds = %13, %2, %11
  %.08 = phi i32 [ %12, %11 ], [ -1, %2 ], [ -1, %13 ]
  ret i32 %.08
}